target datalayout = "e-m:e-p270:32:32-p271:32:32-p272:64:64-i64:64-i128:128-f80:128-n8:16:32:64-S128"
target triple = "x86_64-pc-linux-gnu"

%struct.darktable_t = type { %struct.dt_codepath_t, i32, i32, ptr, ptr, ptr, ptr, ptr, ptr, ptr, ptr, ptr, ptr, ptr, ptr, ptr, ptr, ptr, ptr, ptr, ptr, ptr, ptr, ptr, ptr, ptr, ptr, ptr, ptr, ptr, [64 x %struct.dt_pthread_mutex_t], %struct.dt_pthread_mutex_t, %struct.dt_pthread_mutex_t, %struct.dt_pthread_mutex_t, %struct.dt_pthread_mutex_t, %struct.dt_pthread_mutex_t, ptr, ptr, ptr, ptr, ptr, ptr, ptr, ptr, ptr, ptr, ptr, ptr, ptr, %struct.dt_lua_state_t, ptr, double, ptr, i32, [47 x i32], i32, i32, ptr, ptr, %struct.dt_sys_resources_t, %struct.dt_backthumb_t, %struct.dt_gimp_t }
%struct.dt_codepath_t = type { i8, [3 x i8] }
%struct.dt_pthread_mutex_t = type { %union.pthread_mutex_t }
%union.pthread_mutex_t = type { %struct.__pthread_mutex_s }
%struct.__pthread_mutex_s = type { i32, i32, i32, i32, i32, i16, i16, %struct.__pthread_internal_list }
%struct.__pthread_internal_list = type { ptr, ptr }
%struct.dt_lua_state_t = type { i32 }
%struct.dt_sys_resources_t = type { i64, i64, ptr, ptr, i32 }
%struct.dt_backthumb_t = type { double, double, i32, i32, i32, i32 }
%struct.dt_gimp_t = type { i32, ptr, ptr, i32, i32 }
%struct._GdkRGBA = type { double, double, double, double }
%struct._GtkBorder = type { i16, i16, i16, i16 }
%struct.dt_gui_gtk_t = type { ptr, %struct.dt_gui_widgets_t, %struct.dt_gui_scrollbars_t, i32, ptr, i32, [39 x %struct._GdkRGBA], i32, i32, i32, i32, i32, double, double, double, double, ptr, double, double, double, double, i32, i32, [4096 x i8], i32, i32, i32, %struct.dt_pthread_mutex_t }
%struct.dt_gui_widgets_t = type { ptr, ptr, ptr, ptr, i32, i32, i32 }
%struct.dt_gui_scrollbars_t = type { ptr, ptr, i32 }
%struct.dt_bauhaus_t = type { ptr, %struct.dt_bauhaus_popup_t, ptr, float, float, i32, i32, float, [180 x i8], i32, i32, [2 x i32], i32, ptr, ptr, float, float, float, float, float, ptr, ptr, i32, i32, i32, %struct._GdkRGBA, %struct._GdkRGBA, %struct._GdkRGBA, %struct._GdkRGBA, %struct._GdkRGBA, %struct._GdkRGBA, %struct._GdkRGBA, %struct._GdkRGBA, %struct._GdkRGBA, %struct._GdkRGBA, %struct._GdkRGBA, %struct._GdkRGBA, %struct._GdkRGBA, %struct._GdkRGBA, %struct._GdkRGBA, [3 x %struct._GdkRGBA], [5 x %struct._GdkRGBA] }
%struct.dt_bauhaus_popup_t = type { ptr, ptr, %struct._GtkBorder, %struct._cairo_rectangle_int, i32, i32, i32 }
%struct._cairo_rectangle_int = type { i32, i32, i32, i32 }
%struct.dt_control_t = type { i32, ptr, %struct.dt_action_t, %struct.dt_action_t, %struct.dt_action_t, %struct.dt_action_t, %struct.dt_action_t, %struct.dt_action_t, %struct.dt_action_t, %struct.dt_action_t, %struct.dt_action_t, %struct.dt_action_t, %struct.dt_action_t, ptr, ptr, ptr, i32, ptr, i32, i32, ptr, ptr, [256 x i8], i32, double, i32, i32, i64, i32, i32, i32, double, double, i32, i32, i32, i32, i32, i32, [8 x [1000 x i8]], i32, i32, %struct.dt_pthread_mutex_t, i32, i32, [2 x [300 x i8]], i32, i32, %struct.dt_pthread_mutex_t, %struct.dt_pthread_mutex_t, %struct.dt_pthread_mutex_t, double, i32, i32, i32, %struct.dt_pthread_mutex_t, %struct.dt_pthread_mutex_t, %union.pthread_cond_t, i32, ptr, i64, i64, ptr, [5 x ptr], [5 x i64], %struct.dt_pthread_mutex_t, [3 x ptr], [3 x i8], [3 x i64], %struct.anon.0, %struct.anon.2 }
%struct.dt_action_t = type { i32, ptr, ptr, ptr, ptr, ptr }
%union.pthread_cond_t = type { %struct.__pthread_cond_s }
%struct.__pthread_cond_s = type { %union.__atomic_wide_counter, %union.__atomic_wide_counter, [2 x i32], [2 x i32], i32, i32, [2 x i32] }
%union.__atomic_wide_counter = type { i64 }
%struct.anon.0 = type { ptr, i64, i64, double, %struct.dt_pthread_mutex_t, %struct.anon.1 }
%struct.anon.1 = type { ptr, ptr, ptr, ptr, ptr, ptr }
%struct.anon.2 = type { %struct.anon.3 }
%struct.anon.3 = type { ptr, ptr }

@darktable = external global %struct.darktable_t, align 8
@.str.27 = private unnamed_addr constant [7 x i8] c"expand\00", align 1
@.str.28 = private unnamed_addr constant [14 x i8] c"moved-to-rect\00", align 1
@.str.29 = private unnamed_addr constant [5 x i8] c"show\00", align 1
@.str.30 = private unnamed_addr constant [20 x i8] c"motion-notify-event\00", align 1
@.str.31 = private unnamed_addr constant [5 x i8] c"draw\00", align 1
@.str.32 = private unnamed_addr constant [19 x i8] c"leave-notify-event\00", align 1
@.str.33 = private unnamed_addr constant [19 x i8] c"button-press-event\00", align 1
@.str.34 = private unnamed_addr constant [21 x i8] c"button-release-event\00", align 1
@.str.35 = private unnamed_addr constant [16 x i8] c"key-press-event\00", align 1
@.str.36 = private unnamed_addr constant [13 x i8] c"scroll-event\00", align 1
@.str.37 = private unnamed_addr constant [8 x i8] c"sliders\00", align 1
@.str.38 = private unnamed_addr constant [10 x i8] c"dropdowns\00", align 1
@.str.39 = private unnamed_addr constant [8 x i8] c"buttons\00", align 1
@_action_def_focus_slider = internal constant { ptr, ptr, ptr, ptr, i32, [4 x i8] } { ptr @.str.37, ptr @_action_process_focus_slider, ptr @.compoundliteral, ptr null, i32 1, [4 x i8] zeroinitializer }, align 8
@_action_def_focus_combo = internal constant { ptr, ptr, ptr, ptr, i32, [4 x i8] } { ptr @.str.38, ptr @_action_process_focus_combo, ptr @.compoundliteral.102, ptr null, i32 1, [4 x i8] zeroinitializer }, align 8
@_action_def_focus_button = internal constant { ptr, ptr, ptr, ptr, i32, [4 x i8] } { ptr @.str.39, ptr @_action_process_focus_button, ptr @.compoundliteral.105, ptr null, i32 1, [4 x i8] zeroinitializer }, align 8

; Function Attrs: nounwind uwtable
define void @dt_bauhaus_init() #0 {
  %1 = alloca ptr, align 8
  %2 = alloca ptr, align 8
  %3 = alloca ptr, align 8
  %4 = alloca ptr, align 8
  %5 = call noalias ptr @calloc(i64 noundef 1, i64 noundef 1104) #15
  store ptr %5, ptr getelementptr inbounds nuw (%struct.darktable_t, ptr @darktable, i32 0, i32 17), align 8, !tbaa !78
  call void @llvm.lifetime.start.p0(i64 8, ptr %1) #13
  %6 = load ptr, ptr getelementptr inbounds nuw (%struct.darktable_t, ptr @darktable, i32 0, i32 17), align 8, !tbaa !78
  store ptr %6, ptr %1, align 8, !tbaa !79
  call void @llvm.lifetime.start.p0(i64 8, ptr %2) #13
  %7 = load ptr, ptr %1, align 8, !tbaa !79
  %8 = getelementptr inbounds nuw %struct.dt_bauhaus_t, ptr %7, i32 0, i32 1
  store ptr %8, ptr %2, align 8, !tbaa !101
  %9 = load ptr, ptr %1, align 8, !tbaa !79
  %10 = getelementptr inbounds nuw %struct.dt_bauhaus_t, ptr %9, i32 0, i32 9
  store i32 0, ptr %10, align 8, !tbaa !103
  %11 = load ptr, ptr %1, align 8, !tbaa !79
  %12 = getelementptr inbounds nuw %struct.dt_bauhaus_t, ptr %11, i32 0, i32 0
  store ptr null, ptr %12, align 8, !tbaa !104
  %13 = load ptr, ptr %1, align 8, !tbaa !79
  %14 = getelementptr inbounds nuw %struct.dt_bauhaus_t, ptr %13, i32 0, i32 20
  store ptr null, ptr %14, align 8, !tbaa !80
  call void @dt_bauhaus_load_theme()
  %15 = load ptr, ptr %1, align 8, !tbaa !79
  %16 = getelementptr inbounds nuw %struct.dt_bauhaus_t, ptr %15, i32 0, i32 12
  store i32 1, ptr %16, align 8, !tbaa !105
  %17 = call ptr @g_hash_table_new(ptr noundef null, ptr noundef null)
  %18 = load ptr, ptr %1, align 8, !tbaa !79
  %19 = getelementptr inbounds nuw %struct.dt_bauhaus_t, ptr %18, i32 0, i32 13
  store ptr %17, ptr %19, align 8, !tbaa !106
  %20 = call ptr @g_hash_table_new(ptr noundef null, ptr noundef null)
  %21 = load ptr, ptr %1, align 8, !tbaa !79
  %22 = getelementptr inbounds nuw %struct.dt_bauhaus_t, ptr %21, i32 0, i32 14
  store ptr %20, ptr %22, align 8, !tbaa !107
  %23 = call ptr @gtk_window_new(i32 noundef 1)
  %24 = load ptr, ptr %2, align 8, !tbaa !101
  %25 = getelementptr inbounds nuw %struct.dt_bauhaus_popup_t, ptr %24, i32 0, i32 0
  store ptr %23, ptr %25, align 8, !tbaa !108
  %26 = load ptr, ptr %2, align 8, !tbaa !101
  %27 = getelementptr inbounds nuw %struct.dt_bauhaus_popup_t, ptr %26, i32 0, i32 0
  %28 = load ptr, ptr %27, align 8, !tbaa !108
  call void @gtk_widget_set_size_request(ptr noundef %28, i32 noundef 1, i32 noundef 1)
  %29 = load ptr, ptr %2, align 8, !tbaa !101
  %30 = getelementptr inbounds nuw %struct.dt_bauhaus_popup_t, ptr %29, i32 0, i32 0
  %31 = load ptr, ptr %30, align 8, !tbaa !108
  %32 = call i64 @gtk_window_get_type() #14
  %33 = call ptr @g_type_check_instance_cast(ptr noundef %31, i64 noundef %32)
  call void @gtk_window_set_keep_above(ptr noundef %33, i32 noundef 1)
  %34 = load ptr, ptr %2, align 8, !tbaa !101
  %35 = getelementptr inbounds nuw %struct.dt_bauhaus_popup_t, ptr %34, i32 0, i32 0
  %36 = load ptr, ptr %35, align 8, !tbaa !108
  %37 = call i64 @gtk_window_get_type() #14
  %38 = call ptr @g_type_check_instance_cast(ptr noundef %36, i64 noundef %37)
  call void @gtk_window_set_modal(ptr noundef %38, i32 noundef 1)
  %39 = load ptr, ptr %2, align 8, !tbaa !101
  %40 = getelementptr inbounds nuw %struct.dt_bauhaus_popup_t, ptr %39, i32 0, i32 0
  %41 = load ptr, ptr %40, align 8, !tbaa !108
  %42 = call i64 @gtk_window_get_type() #14
  %43 = call ptr @g_type_check_instance_cast(ptr noundef %41, i64 noundef %42)
  call void @gtk_window_set_type_hint(ptr noundef %43, i32 noundef 9)
  %44 = call ptr @gtk_drawing_area_new()
  %45 = load ptr, ptr %2, align 8, !tbaa !101
  %46 = getelementptr inbounds nuw %struct.dt_bauhaus_popup_t, ptr %45, i32 0, i32 1
  store ptr %44, ptr %46, align 8, !tbaa !109
  %47 = load ptr, ptr %2, align 8, !tbaa !101
  %48 = getelementptr inbounds nuw %struct.dt_bauhaus_popup_t, ptr %47, i32 0, i32 1
  %49 = load ptr, ptr %48, align 8, !tbaa !109
  call void (ptr, ptr, ...) @g_object_set(ptr noundef %49, ptr noundef @.str.27, i32 noundef 1, ptr noundef null)
  %50 = load ptr, ptr %2, align 8, !tbaa !101
  %51 = getelementptr inbounds nuw %struct.dt_bauhaus_popup_t, ptr %50, i32 0, i32 0
  %52 = load ptr, ptr %51, align 8, !tbaa !108
  %53 = call i64 @gtk_container_get_type() #14
  %54 = call ptr @g_type_check_instance_cast(ptr noundef %52, i64 noundef %53)
  %55 = load ptr, ptr %2, align 8, !tbaa !101
  %56 = getelementptr inbounds nuw %struct.dt_bauhaus_popup_t, ptr %55, i32 0, i32 1
  %57 = load ptr, ptr %56, align 8, !tbaa !109
  call void @gtk_container_add(ptr noundef %54, ptr noundef %57)
  %58 = load ptr, ptr %2, align 8, !tbaa !101
  %59 = getelementptr inbounds nuw %struct.dt_bauhaus_popup_t, ptr %58, i32 0, i32 1
  %60 = load ptr, ptr %59, align 8, !tbaa !109
  call void @gtk_widget_set_can_focus(ptr noundef %60, i32 noundef 1)
  %61 = load ptr, ptr %2, align 8, !tbaa !101
  %62 = getelementptr inbounds nuw %struct.dt_bauhaus_popup_t, ptr %61, i32 0, i32 1
  %63 = load ptr, ptr %62, align 8, !tbaa !109
  %64 = load ptr, ptr getelementptr inbounds nuw (%struct.darktable_t, ptr @darktable, i32 0, i32 14), align 8, !tbaa !33
  %65 = getelementptr inbounds nuw %struct.dt_gui_gtk_t, ptr %64, i32 0, i32 24
  %66 = load i32, ptr %65, align 8, !tbaa !110
  %67 = or i32 9988, %66
  call void @gtk_widget_add_events(ptr noundef %63, i32 noundef %67)
  call void @llvm.lifetime.start.p0(i64 8, ptr %3) #13
  %68 = load ptr, ptr %2, align 8, !tbaa !101
  %69 = getelementptr inbounds nuw %struct.dt_bauhaus_popup_t, ptr %68, i32 0, i32 0
  %70 = load ptr, ptr %69, align 8, !tbaa !108
  %71 = call ptr @g_type_check_instance_cast(ptr noundef %70, i64 noundef 80)
  store ptr %71, ptr %3, align 8, !tbaa !111
  call void @llvm.lifetime.start.p0(i64 8, ptr %4) #13
  %72 = load ptr, ptr %2, align 8, !tbaa !101
  %73 = getelementptr inbounds nuw %struct.dt_bauhaus_popup_t, ptr %72, i32 0, i32 1
  %74 = load ptr, ptr %73, align 8, !tbaa !109
  %75 = call ptr @g_type_check_instance_cast(ptr noundef %74, i64 noundef 80)
  store ptr %75, ptr %4, align 8, !tbaa !111
  %76 = load ptr, ptr %2, align 8, !tbaa !101
  %77 = getelementptr inbounds nuw %struct.dt_bauhaus_popup_t, ptr %76, i32 0, i32 0
  %78 = load ptr, ptr %77, align 8, !tbaa !108
  call void @gtk_widget_realize(ptr noundef %78)
  %79 = load ptr, ptr %2, align 8, !tbaa !101
  %80 = getelementptr inbounds nuw %struct.dt_bauhaus_popup_t, ptr %79, i32 0, i32 0
  %81 = load ptr, ptr %80, align 8, !tbaa !108
  %82 = call ptr @gtk_widget_get_window(ptr noundef %81)
  %83 = call i64 @g_signal_connect_data(ptr noundef %82, ptr noundef @.str.28, ptr noundef @_window_moved_to_rect, ptr noundef null, ptr noundef null, i32 noundef 0)
  %84 = load ptr, ptr %3, align 8, !tbaa !111
  %85 = load ptr, ptr %4, align 8, !tbaa !111
  %86 = call i64 @g_signal_connect_data(ptr noundef %84, ptr noundef @.str.29, ptr noundef @_window_show, ptr noundef %85, ptr noundef null, i32 noundef 0)
  %87 = load ptr, ptr %3, align 8, !tbaa !111
  %88 = call i64 @g_signal_connect_data(ptr noundef %87, ptr noundef @.str.30, ptr noundef @_window_motion_notify, ptr noundef null, ptr noundef null, i32 noundef 0)
  %89 = load ptr, ptr %4, align 8, !tbaa !111
  %90 = call i64 @g_signal_connect_data(ptr noundef %89, ptr noundef @.str.31, ptr noundef @_popup_draw, ptr noundef null, ptr noundef null, i32 noundef 0)
  %91 = load ptr, ptr %4, align 8, !tbaa !111
  %92 = call i64 @g_signal_connect_data(ptr noundef %91, ptr noundef @.str.32, ptr noundef @_popup_leave_notify, ptr noundef null, ptr noundef null, i32 noundef 0)
  %93 = load ptr, ptr %4, align 8, !tbaa !111
  %94 = call i64 @g_signal_connect_data(ptr noundef %93, ptr noundef @.str.33, ptr noundef @_popup_button_press, ptr noundef null, ptr noundef null, i32 noundef 0)
  %95 = load ptr, ptr %4, align 8, !tbaa !111
  %96 = call i64 @g_signal_connect_data(ptr noundef %95, ptr noundef @.str.34, ptr noundef @_popup_button_release, ptr noundef null, ptr noundef null, i32 noundef 0)
  %97 = load ptr, ptr %4, align 8, !tbaa !111
  %98 = call i64 @g_signal_connect_data(ptr noundef %97, ptr noundef @.str.35, ptr noundef @_popup_key_press, ptr noundef null, ptr noundef null, i32 noundef 0)
  %99 = load ptr, ptr %4, align 8, !tbaa !111
  %100 = call i64 @g_signal_connect_data(ptr noundef %99, ptr noundef @.str.36, ptr noundef @_popup_scroll, ptr noundef null, ptr noundef null, i32 noundef 0)
  %101 = load ptr, ptr getelementptr inbounds nuw (%struct.darktable_t, ptr @darktable, i32 0, i32 12), align 8, !tbaa !113
  %102 = getelementptr inbounds nuw %struct.dt_control_t, ptr %101, i32 0, i32 10
  %103 = call ptr @dt_action_define(ptr noundef %102, ptr noundef null, ptr noundef @.str.37, ptr noundef null, ptr noundef @_action_def_focus_slider)
  %104 = load ptr, ptr getelementptr inbounds nuw (%struct.darktable_t, ptr @darktable, i32 0, i32 12), align 8, !tbaa !113
  %105 = getelementptr inbounds nuw %struct.dt_control_t, ptr %104, i32 0, i32 10
  %106 = call ptr @dt_action_define(ptr noundef %105, ptr noundef null, ptr noundef @.str.38, ptr noundef null, ptr noundef @_action_def_focus_combo)
  %107 = load ptr, ptr getelementptr inbounds nuw (%struct.darktable_t, ptr @darktable, i32 0, i32 12), align 8, !tbaa !113
  %108 = getelementptr inbounds nuw %struct.dt_control_t, ptr %107, i32 0, i32 10
  %109 = call ptr @dt_action_define(ptr noundef %108, ptr noundef null, ptr noundef @.str.39, ptr noundef null, ptr noundef @_action_def_focus_button)
  call void @llvm.lifetime.end.p0(i64 8, ptr %4) #13
  call void @llvm.lifetime.end.p0(i64 8, ptr %3) #13
  call void @llvm.lifetime.end.p0(i64 8, ptr %2) #13
  call void @llvm.lifetime.end.p0(i64 8, ptr %1) #13
  ret void
}