; Function Attrs: nounwind uwtable
define void @dt_bauhaus_init() local_unnamed_addr #0 {
  %1 = tail call noalias dereferenceable_or_null(1104) ptr @calloc(i64 noundef 1, i64 noundef 1104) #21
  store ptr %1, ptr getelementptr inbounds nuw (i8, ptr @darktable, i64 128), align 8, !tbaa !67
  %2 = getelementptr inbounds nuw i8, ptr %1, i64 8
  tail call void @dt_bauhaus_load_theme()
  %3 = getelementptr inbounds nuw i8, ptr %1, i64 288
  store i32 1, ptr %3, align 8, !tbaa !85
  %4 = tail call ptr @g_hash_table_new(ptr noundef null, ptr noundef null) #19
  %5 = getelementptr inbounds nuw i8, ptr %1, i64 296
  store ptr %4, ptr %5, align 8, !tbaa !86
  %6 = tail call ptr @g_hash_table_new(ptr noundef null, ptr noundef null) #19
  %7 = getelementptr inbounds nuw i8, ptr %1, i64 304
  store ptr %6, ptr %7, align 8, !tbaa !87
  %8 = tail call ptr @gtk_window_new(i32 noundef 1) #19
  store ptr %8, ptr %2, align 8, !tbaa !88
  tail call void @gtk_widget_set_size_request(ptr noundef %8, i32 noundef 1, i32 noundef 1) #19
  %9 = load ptr, ptr %2, align 8, !tbaa !88
  %10 = tail call i64 @gtk_window_get_type() #20
  %11 = tail call ptr @g_type_check_instance_cast(ptr noundef %9, i64 noundef %10) #19
  tail call void @gtk_window_set_keep_above(ptr noundef %11, i32 noundef 1) #19
  %12 = load ptr, ptr %2, align 8, !tbaa !88
  %13 = tail call ptr @g_type_check_instance_cast(ptr noundef %12, i64 noundef %10) #19
  tail call void @gtk_window_set_modal(ptr noundef %13, i32 noundef 1) #19
  %14 = load ptr, ptr %2, align 8, !tbaa !88
  %15 = tail call ptr @g_type_check_instance_cast(ptr noundef %14, i64 noundef %10) #19
  tail call void @gtk_window_set_type_hint(ptr noundef %15, i32 noundef 9) #19
  %16 = tail call ptr @gtk_drawing_area_new() #19
  %17 = getelementptr inbounds nuw i8, ptr %1, i64 16
  store ptr %16, ptr %17, align 8, !tbaa !89
  tail call void (ptr, ptr, ...) @g_object_set(ptr noundef %16, ptr noundef nonnull @.str.27, i32 noundef 1, ptr noundef null) #19
  %18 = load ptr, ptr %2, align 8, !tbaa !88
  %19 = tail call i64 @gtk_container_get_type() #20
  %20 = tail call ptr @g_type_check_instance_cast(ptr noundef %18, i64 noundef %19) #19
  %21 = load ptr, ptr %17, align 8, !tbaa !89
  tail call void @gtk_container_add(ptr noundef %20, ptr noundef %21) #19
  %22 = load ptr, ptr %17, align 8, !tbaa !89
  tail call void @gtk_widget_set_can_focus(ptr noundef %22, i32 noundef 1) #19
  %23 = load ptr, ptr %17, align 8, !tbaa !89
  %24 = load ptr, ptr getelementptr inbounds nuw (i8, ptr @darktable, i64 104), align 8, !tbaa !25
  %25 = getelementptr inbounds nuw i8, ptr %24, i64 5552
  %26 = load i32, ptr %25, align 8, !tbaa !90
  %27 = or i32 %26, 9988
  tail call void @gtk_widget_add_events(ptr noundef %23, i32 noundef %27) #19
  %28 = load ptr, ptr %2, align 8, !tbaa !88
  %29 = tail call ptr @g_type_check_instance_cast(ptr noundef %28, i64 noundef 80) #19
  %30 = load ptr, ptr %17, align 8, !tbaa !89
  %31 = tail call ptr @g_type_check_instance_cast(ptr noundef %30, i64 noundef 80) #19
  %32 = load ptr, ptr %2, align 8, !tbaa !88
  tail call void @gtk_widget_realize(ptr noundef %32) #19
  %33 = load ptr, ptr %2, align 8, !tbaa !88
  %34 = tail call ptr @gtk_widget_get_window(ptr noundef %33) #19
  %35 = tail call i64 @g_signal_connect_data(ptr noundef %34, ptr noundef nonnull @.str.28, ptr noundef nonnull @_window_moved_to_rect, ptr noundef null, ptr noundef null, i32 noundef 0) #19
  %36 = tail call i64 @g_signal_connect_data(ptr noundef %29, ptr noundef nonnull @.str.29, ptr noundef nonnull @_window_show, ptr noundef %31, ptr noundef null, i32 noundef 0) #19
  %37 = tail call i64 @g_signal_connect_data(ptr noundef %29, ptr noundef nonnull @.str.30, ptr noundef nonnull @_window_motion_notify, ptr noundef null, ptr noundef null, i32 noundef 0) #19
  %38 = tail call i64 @g_signal_connect_data(ptr noundef %31, ptr noundef nonnull @.str.31, ptr noundef nonnull @_popup_draw, ptr noundef null, ptr noundef null, i32 noundef 0) #19
  %39 = tail call i64 @g_signal_connect_data(ptr noundef %31, ptr noundef nonnull @.str.32, ptr noundef nonnull @_popup_leave_notify, ptr noundef null, ptr noundef null, i32 noundef 0) #19
  %40 = tail call i64 @g_signal_connect_data(ptr noundef %31, ptr noundef nonnull @.str.33, ptr noundef nonnull @_popup_button_press, ptr noundef null, ptr noundef null, i32 noundef 0) #19
  %41 = tail call i64 @g_signal_connect_data(ptr noundef %31, ptr noundef nonnull @.str.34, ptr noundef nonnull @_popup_button_release, ptr noundef null, ptr noundef null, i32 noundef 0) #19
  %42 = tail call i64 @g_signal_connect_data(ptr noundef %31, ptr noundef nonnull @.str.35, ptr noundef nonnull @_popup_key_press, ptr noundef null, ptr noundef null, i32 noundef 0) #19
  %43 = tail call i64 @g_signal_connect_data(ptr noundef %31, ptr noundef nonnull @.str.36, ptr noundef nonnull @_popup_scroll, ptr noundef null, ptr noundef null, i32 noundef 0) #19
  %44 = load ptr, ptr getelementptr inbounds nuw (i8, ptr @darktable, i64 88), align 8, !tbaa !91
  %45 = getelementptr inbounds nuw i8, ptr %44, i64 400
  %46 = tail call ptr @dt_action_define(ptr noundef nonnull %45, ptr noundef null, ptr noundef nonnull @.str.37, ptr noundef null, ptr noundef nonnull @_action_def_focus_slider) #19
  %47 = load ptr, ptr getelementptr inbounds nuw (i8, ptr @darktable, i64 88), align 8, !tbaa !91
  %48 = getelementptr inbounds nuw i8, ptr %47, i64 400
  %49 = tail call ptr @dt_action_define(ptr noundef nonnull %48, ptr noundef null, ptr noundef nonnull @.str.38, ptr noundef null, ptr noundef nonnull @_action_def_focus_combo) #19
  %50 = load ptr, ptr getelementptr inbounds nuw (i8, ptr @darktable, i64 88), align 8, !tbaa !91
  %51 = getelementptr inbounds nuw i8, ptr %50, i64 400
  %52 = tail call ptr @dt_action_define(ptr noundef nonnull %51, ptr noundef null, ptr noundef nonnull @.str.39, ptr noundef null, ptr noundef nonnull @_action_def_focus_button) #19
  ret void
}